; Function Attrs: mustprogress nounwind uwtable
define hidden void @_ZN25InterpreterMacroAssembler25check_and_handle_popframeE8Register(ptr noundef nonnull align 8 dereferenceable(48) %0, i32 %1) unnamed_addr #0 align 2 {
  %3 = alloca %class.Label, align 8
  %4 = alloca %class.Address, align 8
  %5 = load i8, ptr @_ZN11JvmtiExport14_can_pop_frameE, align 1
  %6 = trunc i8 %5 to i1
  br i1 %6, label %7, label %16

7:                                                ; preds = %2
  store i32 -1, ptr %3, align 8
  %8 = getelementptr inbounds i8, ptr %3, i64 20
  store i32 0, ptr %8, align 4
  %9 = getelementptr inbounds i8, ptr %3, i64 24
  store ptr null, ptr %9, align 8
  %10 = getelementptr inbounds i8, ptr %3, i64 32
  store i8 0, ptr %10, align 8
  store i32 %1, ptr %4, align 8
  %11 = getelementptr inbounds i8, ptr %4, i64 4
  store <4 x i32> <i32 -1, i32 -1, i32 -1, i32 1324>, ptr %11, align 4
  %12 = getelementptr inbounds i8, ptr %4, i64 20
  store i8 0, ptr %12, align 4
  %13 = getelementptr inbounds i8, ptr %4, i64 24
  store ptr getelementptr inbounds inrange(-16, 72) (i8, ptr @_ZTV10Relocation, i64 16), ptr %13, align 8
  %14 = getelementptr inbounds i8, ptr %4, i64 32
  store ptr null, ptr %14, align 8
  %15 = getelementptr inbounds i8, ptr %4, i64 40
  store i32 0, ptr %15, align 8
  call void @_ZN9Assembler4movlE8Register7Address(ptr noundef nonnull align 8 dereferenceable(40) %0, i32 7, ptr noundef nonnull %4) #8
  call void @_ZN14MacroAssembler5testlE8Registeri(ptr noundef nonnull align 8 dereferenceable(40) %0, i32 7, i32 noundef 1) #8
  call void @_ZN9Assembler3jccENS_9ConditionER5Labelb(ptr noundef nonnull align 8 dereferenceable(40) %0, i32 noundef 4, ptr noundef nonnull align 8 dereferenceable(33) %3, i1 noundef zeroext true) #8
  call void @_ZN14MacroAssembler5testlE8Registeri(ptr noundef nonnull align 8 dereferenceable(40) %0, i32 7, i32 noundef 2) #8
  call void @_ZN9Assembler3jccENS_9ConditionER5Labelb(ptr noundef nonnull align 8 dereferenceable(40) %0, i32 noundef 5, ptr noundef nonnull align 8 dereferenceable(33) %3, i1 noundef zeroext true) #8
  call void @_ZN14MacroAssembler12call_VM_leafEPhi(ptr noundef nonnull align 8 dereferenceable(40) %0, ptr noundef nonnull @_ZN19TemplateInterpreter39remove_activation_preserving_args_entryEv, i32 noundef 0) #8
  call void @_ZN9Assembler3jmpE8Register(ptr noundef nonnull align 8 dereferenceable(40) %0, i32 0) #8
  call void @_ZN17AbstractAssembler4bindER5Label(ptr noundef nonnull align 8 dereferenceable(24) %0, ptr noundef nonnull align 8 dereferenceable(33) %3) #8
  br label %16

16:                                               ; preds = %7, %2
  ret void
}